opt subtitle "Microchip Technology Omniscient Code Generator v1.45 (PRO mode) build 201711160504"

opt pagewidth 120

	opt pm

	processor	SC8F096AD
opt include "H:\MyDownloads\IDE_RAR\SCMCU_IDE_V2.00.16_Beta9\data\include\sc8f096ad.cgen.inc"
clrc	macro
	bcf	3,0
	endm
clrz	macro
	bcf	3,2
	endm
setc	macro
	bsf	3,0
	endm
setz	macro
	bsf	3,2
	endm
skipc	macro
	btfss	3,0
	endm
skipz	macro
	btfss	3,2
	endm
skipnc	macro
	btfsc	3,0
	endm
skipnz	macro
	btfsc	3,2
	endm
# 13 "H:\MyDownloads\IDE_RAR\SCMCU_IDE_V2.00.16_Beta9\data\include\SC8F096AD.h"
INDF EQU 00H ;# 
# 20 "H:\MyDownloads\IDE_RAR\SCMCU_IDE_V2.00.16_Beta9\data\include\SC8F096AD.h"
OPTION_REG EQU 01H ;# 
# 27 "H:\MyDownloads\IDE_RAR\SCMCU_IDE_V2.00.16_Beta9\data\include\SC8F096AD.h"
PCL EQU 02H ;# 
# 34 "H:\MyDownloads\IDE_RAR\SCMCU_IDE_V2.00.16_Beta9\data\include\SC8F096AD.h"
STATUS EQU 03H ;# 
# 41 "H:\MyDownloads\IDE_RAR\SCMCU_IDE_V2.00.16_Beta9\data\include\SC8F096AD.h"
FSR EQU 04H ;# 
# 48 "H:\MyDownloads\IDE_RAR\SCMCU_IDE_V2.00.16_Beta9\data\include\SC8F096AD.h"
TRISB EQU 05H ;# 
# 55 "H:\MyDownloads\IDE_RAR\SCMCU_IDE_V2.00.16_Beta9\data\include\SC8F096AD.h"
PORTB EQU 06H ;# 
# 62 "H:\MyDownloads\IDE_RAR\SCMCU_IDE_V2.00.16_Beta9\data\include\SC8F096AD.h"
WPDB EQU 07H ;# 
# 69 "H:\MyDownloads\IDE_RAR\SCMCU_IDE_V2.00.16_Beta9\data\include\SC8F096AD.h"
WPUB EQU 08H ;# 
# 76 "H:\MyDownloads\IDE_RAR\SCMCU_IDE_V2.00.16_Beta9\data\include\SC8F096AD.h"
IOCB EQU 09H ;# 
# 83 "H:\MyDownloads\IDE_RAR\SCMCU_IDE_V2.00.16_Beta9\data\include\SC8F096AD.h"
PCLATH EQU 0AH ;# 
# 90 "H:\MyDownloads\IDE_RAR\SCMCU_IDE_V2.00.16_Beta9\data\include\SC8F096AD.h"
INTCON EQU 0BH ;# 
# 97 "H:\MyDownloads\IDE_RAR\SCMCU_IDE_V2.00.16_Beta9\data\include\SC8F096AD.h"
QCCON EQU 0CH ;# 
# 104 "H:\MyDownloads\IDE_RAR\SCMCU_IDE_V2.00.16_Beta9\data\include\SC8F096AD.h"
PIR1 EQU 0DH ;# 
# 111 "H:\MyDownloads\IDE_RAR\SCMCU_IDE_V2.00.16_Beta9\data\include\SC8F096AD.h"
PIE1 EQU 0EH ;# 
# 118 "H:\MyDownloads\IDE_RAR\SCMCU_IDE_V2.00.16_Beta9\data\include\SC8F096AD.h"
CMP1CON0 EQU 0FH ;# 
# 125 "H:\MyDownloads\IDE_RAR\SCMCU_IDE_V2.00.16_Beta9\data\include\SC8F096AD.h"
CMP1CON1 EQU 10H ;# 
# 132 "H:\MyDownloads\IDE_RAR\SCMCU_IDE_V2.00.16_Beta9\data\include\SC8F096AD.h"
PR2 EQU 11H ;# 
# 139 "H:\MyDownloads\IDE_RAR\SCMCU_IDE_V2.00.16_Beta9\data\include\SC8F096AD.h"
TMR2 EQU 12H ;# 
# 146 "H:\MyDownloads\IDE_RAR\SCMCU_IDE_V2.00.16_Beta9\data\include\SC8F096AD.h"
T2CON EQU 13H ;# 
# 153 "H:\MyDownloads\IDE_RAR\SCMCU_IDE_V2.00.16_Beta9\data\include\SC8F096AD.h"
OSCCON EQU 14H ;# 
# 160 "H:\MyDownloads\IDE_RAR\SCMCU_IDE_V2.00.16_Beta9\data\include\SC8F096AD.h"
PWMCON0 EQU 15H ;# 
# 167 "H:\MyDownloads\IDE_RAR\SCMCU_IDE_V2.00.16_Beta9\data\include\SC8F096AD.h"
PWMCON1 EQU 16H ;# 
# 174 "H:\MyDownloads\IDE_RAR\SCMCU_IDE_V2.00.16_Beta9\data\include\SC8F096AD.h"
PWMTL EQU 17H ;# 
# 181 "H:\MyDownloads\IDE_RAR\SCMCU_IDE_V2.00.16_Beta9\data\include\SC8F096AD.h"
PWMTH EQU 18H ;# 
# 188 "H:\MyDownloads\IDE_RAR\SCMCU_IDE_V2.00.16_Beta9\data\include\SC8F096AD.h"
PWMD0L EQU 19H ;# 
# 195 "H:\MyDownloads\IDE_RAR\SCMCU_IDE_V2.00.16_Beta9\data\include\SC8F096AD.h"
PWMD1L EQU 1AH ;# 
# 202 "H:\MyDownloads\IDE_RAR\SCMCU_IDE_V2.00.16_Beta9\data\include\SC8F096AD.h"
PWMD4L EQU 1BH ;# 
# 209 "H:\MyDownloads\IDE_RAR\SCMCU_IDE_V2.00.16_Beta9\data\include\SC8F096AD.h"
PWMT4L EQU 1CH ;# 
# 216 "H:\MyDownloads\IDE_RAR\SCMCU_IDE_V2.00.16_Beta9\data\include\SC8F096AD.h"
PWMCON2 EQU 1DH ;# 
# 223 "H:\MyDownloads\IDE_RAR\SCMCU_IDE_V2.00.16_Beta9\data\include\SC8F096AD.h"
PWMDH EQU 1EH ;# 
# 230 "H:\MyDownloads\IDE_RAR\SCMCU_IDE_V2.00.16_Beta9\data\include\SC8F096AD.h"
PWM01DT EQU 1FH ;# 
# 237 "H:\MyDownloads\IDE_RAR\SCMCU_IDE_V2.00.16_Beta9\data\include\SC8F096AD.h"
TMR0 EQU 81H ;# 
# 244 "H:\MyDownloads\IDE_RAR\SCMCU_IDE_V2.00.16_Beta9\data\include\SC8F096AD.h"
TRISA EQU 85H ;# 
# 251 "H:\MyDownloads\IDE_RAR\SCMCU_IDE_V2.00.16_Beta9\data\include\SC8F096AD.h"
PORTA EQU 86H ;# 
# 258 "H:\MyDownloads\IDE_RAR\SCMCU_IDE_V2.00.16_Beta9\data\include\SC8F096AD.h"
WPDA EQU 87H ;# 
# 265 "H:\MyDownloads\IDE_RAR\SCMCU_IDE_V2.00.16_Beta9\data\include\SC8F096AD.h"
WPUA EQU 88H ;# 
# 272 "H:\MyDownloads\IDE_RAR\SCMCU_IDE_V2.00.16_Beta9\data\include\SC8F096AD.h"
IOCA EQU 89H ;# 
# 279 "H:\MyDownloads\IDE_RAR\SCMCU_IDE_V2.00.16_Beta9\data\include\SC8F096AD.h"
ANSEL3 EQU 8CH ;# 
# 286 "H:\MyDownloads\IDE_RAR\SCMCU_IDE_V2.00.16_Beta9\data\include\SC8F096AD.h"
EECON1 EQU 8DH ;# 
# 293 "H:\MyDownloads\IDE_RAR\SCMCU_IDE_V2.00.16_Beta9\data\include\SC8F096AD.h"
EECON2 EQU 8EH ;# 
# 300 "H:\MyDownloads\IDE_RAR\SCMCU_IDE_V2.00.16_Beta9\data\include\SC8F096AD.h"
EEDAT EQU 8FH ;# 
# 307 "H:\MyDownloads\IDE_RAR\SCMCU_IDE_V2.00.16_Beta9\data\include\SC8F096AD.h"
EEDATH EQU 90H ;# 
# 314 "H:\MyDownloads\IDE_RAR\SCMCU_IDE_V2.00.16_Beta9\data\include\SC8F096AD.h"
EEADR EQU 91H ;# 
# 321 "H:\MyDownloads\IDE_RAR\SCMCU_IDE_V2.00.16_Beta9\data\include\SC8F096AD.h"
EEADRH EQU 92H ;# 
# 328 "H:\MyDownloads\IDE_RAR\SCMCU_IDE_V2.00.16_Beta9\data\include\SC8F096AD.h"
ANSEL0 EQU 93H ;# 
# 335 "H:\MyDownloads\IDE_RAR\SCMCU_IDE_V2.00.16_Beta9\data\include\SC8F096AD.h"
ANSEL1 EQU 94H ;# 
# 342 "H:\MyDownloads\IDE_RAR\SCMCU_IDE_V2.00.16_Beta9\data\include\SC8F096AD.h"
ADCON0 EQU 95H ;# 
# 349 "H:\MyDownloads\IDE_RAR\SCMCU_IDE_V2.00.16_Beta9\data\include\SC8F096AD.h"
ADCON1 EQU 96H ;# 
# 356 "H:\MyDownloads\IDE_RAR\SCMCU_IDE_V2.00.16_Beta9\data\include\SC8F096AD.h"
ADRESL EQU 98H ;# 
# 363 "H:\MyDownloads\IDE_RAR\SCMCU_IDE_V2.00.16_Beta9\data\include\SC8F096AD.h"
ADRESH EQU 99H ;# 
# 370 "H:\MyDownloads\IDE_RAR\SCMCU_IDE_V2.00.16_Beta9\data\include\SC8F096AD.h"
CMP2CON0 EQU 9AH ;# 
# 377 "H:\MyDownloads\IDE_RAR\SCMCU_IDE_V2.00.16_Beta9\data\include\SC8F096AD.h"
PWMD2L EQU 9BH ;# 
# 384 "H:\MyDownloads\IDE_RAR\SCMCU_IDE_V2.00.16_Beta9\data\include\SC8F096AD.h"
PWMD3L EQU 9CH ;# 
# 391 "H:\MyDownloads\IDE_RAR\SCMCU_IDE_V2.00.16_Beta9\data\include\SC8F096AD.h"
PWM23DT EQU 9DH ;# 
# 398 "H:\MyDownloads\IDE_RAR\SCMCU_IDE_V2.00.16_Beta9\data\include\SC8F096AD.h"
SEGEN0 EQU 9EH ;# 
# 405 "H:\MyDownloads\IDE_RAR\SCMCU_IDE_V2.00.16_Beta9\data\include\SC8F096AD.h"
CMP2CON1 EQU 9FH ;# 
# 412 "H:\MyDownloads\IDE_RAR\SCMCU_IDE_V2.00.16_Beta9\data\include\SC8F096AD.h"
TRISC EQU 105H ;# 
# 419 "H:\MyDownloads\IDE_RAR\SCMCU_IDE_V2.00.16_Beta9\data\include\SC8F096AD.h"
PORTC EQU 106H ;# 
# 426 "H:\MyDownloads\IDE_RAR\SCMCU_IDE_V2.00.16_Beta9\data\include\SC8F096AD.h"
PORTD EQU 107H ;# 
# 433 "H:\MyDownloads\IDE_RAR\SCMCU_IDE_V2.00.16_Beta9\data\include\SC8F096AD.h"
WPUC EQU 108H ;# 
# 440 "H:\MyDownloads\IDE_RAR\SCMCU_IDE_V2.00.16_Beta9\data\include\SC8F096AD.h"
ANSEL2 EQU 109H ;# 
# 447 "H:\MyDownloads\IDE_RAR\SCMCU_IDE_V2.00.16_Beta9\data\include\SC8F096AD.h"
TMR1L EQU 10CH ;# 
# 454 "H:\MyDownloads\IDE_RAR\SCMCU_IDE_V2.00.16_Beta9\data\include\SC8F096AD.h"
TMR1H EQU 10DH ;# 
# 461 "H:\MyDownloads\IDE_RAR\SCMCU_IDE_V2.00.16_Beta9\data\include\SC8F096AD.h"
T1CON EQU 10EH ;# 
# 468 "H:\MyDownloads\IDE_RAR\SCMCU_IDE_V2.00.16_Beta9\data\include\SC8F096AD.h"
PIR2 EQU 10FH ;# 
# 475 "H:\MyDownloads\IDE_RAR\SCMCU_IDE_V2.00.16_Beta9\data\include\SC8F096AD.h"
PIE2 EQU 110H ;# 
# 482 "H:\MyDownloads\IDE_RAR\SCMCU_IDE_V2.00.16_Beta9\data\include\SC8F096AD.h"
KEYCON0 EQU 111H ;# 
# 489 "H:\MyDownloads\IDE_RAR\SCMCU_IDE_V2.00.16_Beta9\data\include\SC8F096AD.h"
KEYCON1 EQU 112H ;# 
# 496 "H:\MyDownloads\IDE_RAR\SCMCU_IDE_V2.00.16_Beta9\data\include\SC8F096AD.h"
KEYCON2 EQU 113H ;# 
# 503 "H:\MyDownloads\IDE_RAR\SCMCU_IDE_V2.00.16_Beta9\data\include\SC8F096AD.h"
TRISD EQU 114H ;# 
# 510 "H:\MyDownloads\IDE_RAR\SCMCU_IDE_V2.00.16_Beta9\data\include\SC8F096AD.h"
WPUD EQU 115H ;# 
# 517 "H:\MyDownloads\IDE_RAR\SCMCU_IDE_V2.00.16_Beta9\data\include\SC8F096AD.h"
KEYDATAL EQU 116H ;# 
# 524 "H:\MyDownloads\IDE_RAR\SCMCU_IDE_V2.00.16_Beta9\data\include\SC8F096AD.h"
KEYDATAH EQU 117H ;# 
# 531 "H:\MyDownloads\IDE_RAR\SCMCU_IDE_V2.00.16_Beta9\data\include\SC8F096AD.h"
TXSTA0 EQU 118H ;# 
# 538 "H:\MyDownloads\IDE_RAR\SCMCU_IDE_V2.00.16_Beta9\data\include\SC8F096AD.h"
RCSTA0 EQU 119H ;# 
# 545 "H:\MyDownloads\IDE_RAR\SCMCU_IDE_V2.00.16_Beta9\data\include\SC8F096AD.h"
SPBRG0 EQU 11AH ;# 
# 552 "H:\MyDownloads\IDE_RAR\SCMCU_IDE_V2.00.16_Beta9\data\include\SC8F096AD.h"
TXREG0 EQU 11BH ;# 
# 559 "H:\MyDownloads\IDE_RAR\SCMCU_IDE_V2.00.16_Beta9\data\include\SC8F096AD.h"
RCREG0 EQU 11CH ;# 
# 566 "H:\MyDownloads\IDE_RAR\SCMCU_IDE_V2.00.16_Beta9\data\include\SC8F096AD.h"
LCDCON0 EQU 11DH ;# 
# 573 "H:\MyDownloads\IDE_RAR\SCMCU_IDE_V2.00.16_Beta9\data\include\SC8F096AD.h"
LCDCON1 EQU 11EH ;# 
# 580 "H:\MyDownloads\IDE_RAR\SCMCU_IDE_V2.00.16_Beta9\data\include\SC8F096AD.h"
SEGEN1 EQU 11FH ;# 
# 587 "H:\MyDownloads\IDE_RAR\SCMCU_IDE_V2.00.16_Beta9\data\include\SC8F096AD.h"
SEGEN2 EQU 181H ;# 
# 594 "H:\MyDownloads\IDE_RAR\SCMCU_IDE_V2.00.16_Beta9\data\include\SC8F096AD.h"
TXSTA1 EQU 185H ;# 
# 601 "H:\MyDownloads\IDE_RAR\SCMCU_IDE_V2.00.16_Beta9\data\include\SC8F096AD.h"
RCSTA1 EQU 186H ;# 
# 608 "H:\MyDownloads\IDE_RAR\SCMCU_IDE_V2.00.16_Beta9\data\include\SC8F096AD.h"
TXREG1 EQU 187H ;# 
# 615 "H:\MyDownloads\IDE_RAR\SCMCU_IDE_V2.00.16_Beta9\data\include\SC8F096AD.h"
RCREG1 EQU 188H ;# 
# 622 "H:\MyDownloads\IDE_RAR\SCMCU_IDE_V2.00.16_Beta9\data\include\SC8F096AD.h"
SPBRG1 EQU 189H ;# 
# 629 "H:\MyDownloads\IDE_RAR\SCMCU_IDE_V2.00.16_Beta9\data\include\SC8F096AD.h"
OPACON EQU 18CH ;# 
# 636 "H:\MyDownloads\IDE_RAR\SCMCU_IDE_V2.00.16_Beta9\data\include\SC8F096AD.h"
OPAADJ EQU 18DH ;# 
# 643 "H:\MyDownloads\IDE_RAR\SCMCU_IDE_V2.00.16_Beta9\data\include\SC8F096AD.h"
LEDCTR0 EQU 18EH ;# 
# 650 "H:\MyDownloads\IDE_RAR\SCMCU_IDE_V2.00.16_Beta9\data\include\SC8F096AD.h"
LEDCTR1 EQU 18FH ;# 
# 657 "H:\MyDownloads\IDE_RAR\SCMCU_IDE_V2.00.16_Beta9\data\include\SC8F096AD.h"
IICCON EQU 190H ;# 
# 664 "H:\MyDownloads\IDE_RAR\SCMCU_IDE_V2.00.16_Beta9\data\include\SC8F096AD.h"
IICCON2 EQU 191H ;# 
# 671 "H:\MyDownloads\IDE_RAR\SCMCU_IDE_V2.00.16_Beta9\data\include\SC8F096AD.h"
IICSTAT EQU 192H ;# 
# 678 "H:\MyDownloads\IDE_RAR\SCMCU_IDE_V2.00.16_Beta9\data\include\SC8F096AD.h"
IICBUF EQU 193H ;# 
# 685 "H:\MyDownloads\IDE_RAR\SCMCU_IDE_V2.00.16_Beta9\data\include\SC8F096AD.h"
IICADD EQU 194H ;# 
# 692 "H:\MyDownloads\IDE_RAR\SCMCU_IDE_V2.00.16_Beta9\data\include\SC8F096AD.h"
CC0CON EQU 195H ;# 
# 699 "H:\MyDownloads\IDE_RAR\SCMCU_IDE_V2.00.16_Beta9\data\include\SC8F096AD.h"
CC1CON EQU 196H ;# 
# 706 "H:\MyDownloads\IDE_RAR\SCMCU_IDE_V2.00.16_Beta9\data\include\SC8F096AD.h"
PDCON0 EQU 197H ;# 
# 713 "H:\MyDownloads\IDE_RAR\SCMCU_IDE_V2.00.16_Beta9\data\include\SC8F096AD.h"
PDCON1 EQU 198H ;# 
# 720 "H:\MyDownloads\IDE_RAR\SCMCU_IDE_V2.00.16_Beta9\data\include\SC8F096AD.h"
PDADD EQU 199H ;# 
# 727 "H:\MyDownloads\IDE_RAR\SCMCU_IDE_V2.00.16_Beta9\data\include\SC8F096AD.h"
PDRDATA EQU 19AH ;# 
# 734 "H:\MyDownloads\IDE_RAR\SCMCU_IDE_V2.00.16_Beta9\data\include\SC8F096AD.h"
PDSDATA EQU 19BH ;# 
# 741 "H:\MyDownloads\IDE_RAR\SCMCU_IDE_V2.00.16_Beta9\data\include\SC8F096AD.h"
LCDADD EQU 19CH ;# 
# 748 "H:\MyDownloads\IDE_RAR\SCMCU_IDE_V2.00.16_Beta9\data\include\SC8F096AD.h"
LCDDATA EQU 19DH ;# 
# 755 "H:\MyDownloads\IDE_RAR\SCMCU_IDE_V2.00.16_Beta9\data\include\SC8F096AD.h"
COMEN EQU 19EH ;# 
# 762 "H:\MyDownloads\IDE_RAR\SCMCU_IDE_V2.00.16_Beta9\data\include\SC8F096AD.h"
SEGEN3 EQU 19FH ;# 
	FNCALL	_main,_Init_System
	FNROOT	_main
	FNCALL	intlevel1,_IIC_Isr
	global	intlevel1
	FNROOT	intlevel1
	global	_result2
	global	_result1
	global	_result
	global	_IICReadData
	global	_PORTB
_PORTB	set	0x6
	global	_TRISB
_TRISB	set	0x5
	global	_WPUB
_WPUB	set	0x8
	global	_OPTION_REG
_OPTION_REG	set	0x1
	global	_OSCCON
_OSCCON	set	0x14
	global	_INTCON
_INTCON	set	0xB
	global	_GIE
_GIE	set	0x5F
	global	_PEIE
_PEIE	set	0x5E
	global	_PORTA
_PORTA	set	0x86
	global	_WPUA
_WPUA	set	0x88
	global	_TRISA
_TRISA	set	0x85
	global	_IICIF
_IICIF	set	0x87C
	global	_IICIE
_IICIE	set	0x884
	global	_IICBUF
_IICBUF	set	0x193
	global	_IICADD
_IICADD	set	0x194
	global	_IICCON
_IICCON	set	0x190
	global	_IICCKP
_IICCKP	set	0xC84
	global	_DA
_DA	set	0xC95
	global	_RW
_RW	set	0xC92
; #config settings
	file	"SC8F096_IIC_Slave_C.as"
	line	#
psect cinit,class=CODE,delta=2
global start_initialization
start_initialization:

global __initialization
__initialization:
psect	bssCOMMON,class=COMMON,space=1,noexec
global __pbssCOMMON
__pbssCOMMON:
_result2:
       ds      2

_result1:
       ds      2

_result:
       ds      2

_IICReadData:
       ds      1

	file	"SC8F096_IIC_Slave_C.as"
	line	#
; Clear objects allocated to COMMON
psect cinit,class=CODE,delta=2,merge=1
	clrf	((__pbssCOMMON)+0)&07Fh
	clrf	((__pbssCOMMON)+1)&07Fh
	clrf	((__pbssCOMMON)+2)&07Fh
	clrf	((__pbssCOMMON)+3)&07Fh
	clrf	((__pbssCOMMON)+4)&07Fh
	clrf	((__pbssCOMMON)+5)&07Fh
	clrf	((__pbssCOMMON)+6)&07Fh
psect cinit,class=CODE,delta=2,merge=1
global end_of_initialization,__end_of__initialization

;End of C runtime variable initialization code

end_of_initialization:
__end_of__initialization:
clrf status
ljmp _main	;jump to C main() function
psect	cstackCOMMON,class=COMMON,space=1,noexec
global __pcstackCOMMON
__pcstackCOMMON:
?_Init_System:	; 1 bytes @ 0x0
?_main:	; 1 bytes @ 0x0
?_IIC_Isr:	; 1 bytes @ 0x0
??_IIC_Isr:	; 1 bytes @ 0x0
	ds	2
??_Init_System:	; 1 bytes @ 0x2
??_main:	; 1 bytes @ 0x2
;!
;!Data Sizes:
;!    Strings     0
;!    Constant    0
;!    Data        0
;!    BSS         7
;!    Persistent  0
;!    Stack       0
;!
;!Auto Spaces:
;!    Space          Size  Autos    Used
;!    COMMON           14      2       9
;!    BANK0            80      0       0
;!    BANK1            80      0       0
;!    BANK3            80      0       0
;!    BANK2            80      0       0

;!
;!Pointer List with Targets:
;!
;!    None.


;!
;!Critical Paths under _main in COMMON
;!
;!    None.
;!
;!Critical Paths under _IIC_Isr in COMMON
;!
;!    None.
;!
;!Critical Paths under _main in BANK0
;!
;!    None.
;!
;!Critical Paths under _IIC_Isr in BANK0
;!
;!    None.
;!
;!Critical Paths under _main in BANK1
;!
;!    None.
;!
;!Critical Paths under _IIC_Isr in BANK1
;!
;!    None.
;!
;!Critical Paths under _main in BANK3
;!
;!    None.
;!
;!Critical Paths under _IIC_Isr in BANK3
;!
;!    None.
;!
;!Critical Paths under _main in BANK2
;!
;!    None.
;!
;!Critical Paths under _IIC_Isr in BANK2
;!
;!    None.

;;
;;Main: autosize = 0, tempsize = 0, incstack = 0, save=0
;;

;!
;!Call Graph Tables:
;!
;! ---------------------------------------------------------------------------------
;! (Depth) Function   	        Calls       Base Space   Used Autos Params    Refs
;! ---------------------------------------------------------------------------------
;! (0) _main                                                 0     0      0       0
;!                        _Init_System
;! ---------------------------------------------------------------------------------
;! (1) _Init_System                                          0     0      0       0
;! ---------------------------------------------------------------------------------
;! Estimated maximum stack depth 1
;! ---------------------------------------------------------------------------------
;! (Depth) Function   	        Calls       Base Space   Used Autos Params    Refs
;! ---------------------------------------------------------------------------------
;! (2) _IIC_Isr                                              2     2      0       0
;!                                              0 COMMON     2     2      0
;! ---------------------------------------------------------------------------------
;! Estimated maximum stack depth 2
;! ---------------------------------------------------------------------------------
;!
;! Call Graph Graphs:
;!
;! _main (ROOT)
;!   _Init_System
;!
;! _IIC_Isr (ROOT)
;!

;! Address spaces:

;!Name               Size   Autos  Total    Cost      Usage
;!BITCOMMON            E      0       0       0        0.0%
;!NULL                 0      0       0       0        0.0%
;!CODE                 0      0       0       0        0.0%
;!COMMON               E      2       9       1       64.3%
;!BITSFR0              0      0       0       1        0.0%
;!SFR0                 0      0       0       1        0.0%
;!BITSFR1              0      0       0       2        0.0%
;!SFR1                 0      0       0       2        0.0%
;!STACK                0      0       0       2        0.0%
;!BITBANK0            50      0       0       3        0.0%
;!BANK0               50      0       0       4        0.0%
;!BITSFR3              0      0       0       4        0.0%
;!SFR3                 0      0       0       4        0.0%
;!BITBANK1            50      0       0       5        0.0%
;!BITSFR2              0      0       0       5        0.0%
;!SFR2                 0      0       0       5        0.0%
;!BANK1               50      0       0       6        0.0%
;!BITBANK3            50      0       0       7        0.0%
;!BANK3               50      0       0       8        0.0%
;!BITBANK2            50      0       0       9        0.0%
;!BANK2               50      0       0      10        0.0%
;!ABS                  0      0       9      11        0.0%
;!DATA                 0      0       9      12        0.0%

	global	_main

;; *************** function _main *****************
;; Defined at:
;;		line 37 in file "H:\MyDownloads\ЫЕУїЪщ&ВтЪдБЈИц\ПЊЗЂАќ\SC8F096ADПЊЗЂАќ\SC8F096_DEMO_C\SC8F096_IIC_Slave_Demo\SC8F096_IIC_Slave_C.c"
;; Parameters:    Size  Location     Type
;;		None
;; Auto vars:     Size  Location     Type
;;		None
;; Return value:  Size  Location     Type
;;                  1    wreg      void 
;; Registers used:
;;		wreg, status,2, status,0, pclath, cstack
;; Tracked objects:
;;		On entry : B00/0
;;		On exit  : 100/0
;;		Unchanged: 0/0
;; Data sizes:     COMMON   BANK0   BANK1   BANK3   BANK2
;;      Params:         0       0       0       0       0
;;      Locals:         0       0       0       0       0
;;      Temps:          0       0       0       0       0
;;      Totals:         0       0       0       0       0
;;Total ram usage:        0 bytes
;; Hardware stack levels required when called:    2
;; This function calls:
;;		_Init_System
;; This function is called by:
;;		Startup code after reset
;; This function uses a non-reentrant model
;;
psect	maintext,global,class=CODE,delta=2,split=1,group=0
	file	"H:\MyDownloads\ЫЕУїЪщ&ВтЪдБЈИц\ПЊЗЂАќ\SC8F096ADПЊЗЂАќ\SC8F096_DEMO_C\SC8F096_IIC_Slave_Demo\SC8F096_IIC_Slave_C.c"
	line	37
global __pmaintext
__pmaintext:	;psect for function _main
psect	maintext
	file	"H:\MyDownloads\ЫЕУїЪщ&ВтЪдБЈИц\ПЊЗЂАќ\SC8F096ADПЊЗЂАќ\SC8F096_DEMO_C\SC8F096_IIC_Slave_Demo\SC8F096_IIC_Slave_C.c"
	line	37
	global	__size_of_main
	__size_of_main	equ	__end_of_main-_main
	
_main:	
;incstack = 0
	opt	stack 6
; Regs used in _main: [wreg+status,2+status,0+pclath+cstack]
	line	39
	
l470:	
;SC8F096_IIC_Slave_C.c: 39: Init_System();
	fcall	_Init_System
	line	40
	
l472:	
;SC8F096_IIC_Slave_C.c: 40: TRISA |= 0B00000011;
	movlw	low(03h)
	bsf	status, 5	;RP0=1, select bank1
	iorwf	(133)^080h,f	;volatile
	line	73
	
l474:	
;SC8F096_IIC_Slave_C.c: 73: IICCON = 0B00100001;
	movlw	low(021h)
	bsf	status, 6	;RP1=1, select bank3
	movwf	(400)^0180h	;volatile
	line	75
	
l476:	
;SC8F096_IIC_Slave_C.c: 75: IICADD = 0xa0;
	movlw	low(0A0h)
	movwf	(404)^0180h	;volatile
	line	76
	
l478:	
;SC8F096_IIC_Slave_C.c: 76: IICIE =1;
	bcf	status, 5	;RP0=0, select bank2
	bsf	(2180/8)^0100h,(2180)&7	;volatile
	line	77
	
l480:	
;SC8F096_IIC_Slave_C.c: 77: PEIE =1;
	bsf	(94/8),(94)&7	;volatile
	line	78
	
l482:	
;SC8F096_IIC_Slave_C.c: 78: GIE =1;
	bsf	(95/8),(95)&7	;volatile
	line	81
;SC8F096_IIC_Slave_C.c: 81: while(1)
	
l60:	
	line	84
;SC8F096_IIC_Slave_C.c: 82: {
	
l61:	
	line	81
	goto	l60
	global	start
	ljmp	start
	opt stack 0
	line	85
GLOBAL	__end_of_main
	__end_of_main:
	signat	_main,89
	global	_Init_System

;; *************** function _Init_System *****************
;; Defined at:
;;		line 96 in file "H:\MyDownloads\ЫЕУїЪщ&ВтЪдБЈИц\ПЊЗЂАќ\SC8F096ADПЊЗЂАќ\SC8F096_DEMO_C\SC8F096_IIC_Slave_Demo\SC8F096_IIC_Slave_C.c"
;; Parameters:    Size  Location     Type
;;		None
;; Auto vars:     Size  Location     Type
;;		None
;; Return value:  Size  Location     Type
;;                  1    wreg      void 
;; Registers used:
;;		wreg, status,2
;; Tracked objects:
;;		On entry : B00/0
;;		On exit  : 300/0
;;		Unchanged: 0/0
;; Data sizes:     COMMON   BANK0   BANK1   BANK3   BANK2
;;      Params:         0       0       0       0       0
;;      Locals:         0       0       0       0       0
;;      Temps:          0       0       0       0       0
;;      Totals:         0       0       0       0       0
;;Total ram usage:        0 bytes
;; Hardware stack levels used:    1
;; Hardware stack levels required when called:    1
;; This function calls:
;;		Nothing
;; This function is called by:
;;		_main
;; This function uses a non-reentrant model
;;
psect	text1,local,class=CODE,delta=2,merge=1,group=0
	line	96
global __ptext1
__ptext1:	;psect for function _Init_System
psect	text1
	file	"H:\MyDownloads\ЫЕУїЪщ&ВтЪдБЈИц\ПЊЗЂАќ\SC8F096ADПЊЗЂАќ\SC8F096_DEMO_C\SC8F096_IIC_Slave_Demo\SC8F096_IIC_Slave_C.c"
	line	96
	global	__size_of_Init_System
	__size_of_Init_System	equ	__end_of_Init_System-_Init_System
	
_Init_System:	
;incstack = 0
	opt	stack 6
; Regs used in _Init_System: [wreg+status,2]
	line	98
	
l452:	
# 98 "H:\MyDownloads\ЫЕУїЪщ&ВтЪдБЈИц\ПЊЗЂАќ\SC8F096ADПЊЗЂАќ\SC8F096_DEMO_C\SC8F096_IIC_Slave_Demo\SC8F096_IIC_Slave_C.c"
nop ;# 
	line	99
# 99 "H:\MyDownloads\ЫЕУїЪщ&ВтЪдБЈИц\ПЊЗЂАќ\SC8F096ADПЊЗЂАќ\SC8F096_DEMO_C\SC8F096_IIC_Slave_Demo\SC8F096_IIC_Slave_C.c"
clrwdt ;# 
psect	text1
	line	100
	
l454:	
;SC8F096_IIC_Slave_C.c: 100: INTCON = 0;
	clrf	(11)	;volatile
	line	101
	
l456:	
;SC8F096_IIC_Slave_C.c: 101: OSCCON = 0X70;
	movlw	low(070h)
	bcf	status, 5	;RP0=0, select bank0
	bcf	status, 6	;RP1=0, select bank0
	movwf	(20)	;volatile
	line	102
	
l458:	
;SC8F096_IIC_Slave_C.c: 102: OPTION_REG = 0;
	clrf	(1)	;volatile
	line	104
	
l460:	
;SC8F096_IIC_Slave_C.c: 104: WPUA = 0B00000000;
	bsf	status, 5	;RP0=1, select bank1
	clrf	(136)^080h	;volatile
	line	105
	
l462:	
;SC8F096_IIC_Slave_C.c: 105: WPUB = 0B00001000;
	movlw	low(08h)
	bcf	status, 5	;RP0=0, select bank0
	movwf	(8)	;volatile
	line	108
;SC8F096_IIC_Slave_C.c: 108: TRISA = 0B00000000;
	bsf	status, 5	;RP0=1, select bank1
	clrf	(133)^080h	;volatile
	line	109
	
l464:	
;SC8F096_IIC_Slave_C.c: 109: TRISB = 0B00001000;
	movlw	low(08h)
	bcf	status, 5	;RP0=0, select bank0
	movwf	(5)	;volatile
	line	111
	
l466:	
;SC8F096_IIC_Slave_C.c: 111: PORTA = 0B00000000;
	bsf	status, 5	;RP0=1, select bank1
	clrf	(134)^080h	;volatile
	line	112
	
l468:	
;SC8F096_IIC_Slave_C.c: 112: PORTB = 0B00000000;
	bcf	status, 5	;RP0=0, select bank0
	clrf	(6)	;volatile
	line	114
	
l66:	
	return
	opt stack 0
GLOBAL	__end_of_Init_System
	__end_of_Init_System:
	signat	_Init_System,89
	global	_IIC_Isr

;; *************** function _IIC_Isr *****************
;; Defined at:
;;		line 123 in file "H:\MyDownloads\ЫЕУїЪщ&ВтЪдБЈИц\ПЊЗЂАќ\SC8F096ADПЊЗЂАќ\SC8F096_DEMO_C\SC8F096_IIC_Slave_Demo\SC8F096_IIC_Slave_C.c"
;; Parameters:    Size  Location     Type
;;		None
;; Auto vars:     Size  Location     Type
;;		None
;; Return value:  Size  Location     Type
;;                  1    wreg      void 
;; Registers used:
;;		wreg
;; Tracked objects:
;;		On entry : 0/0
;;		On exit  : 200/200
;;		Unchanged: 0/0
;; Data sizes:     COMMON   BANK0   BANK1   BANK3   BANK2
;;      Params:         0       0       0       0       0
;;      Locals:         0       0       0       0       0
;;      Temps:          2       0       0       0       0
;;      Totals:         2       0       0       0       0
;;Total ram usage:        2 bytes
;; Hardware stack levels used:    1
;; This function calls:
;;		Nothing
;; This function is called by:
;;		Interrupt level 1
;; This function uses a non-reentrant model
;;
psect	text2,local,class=CODE,delta=2,merge=1,group=0
	line	123
global __ptext2
__ptext2:	;psect for function _IIC_Isr
psect	text2
	file	"H:\MyDownloads\ЫЕУїЪщ&ВтЪдБЈИц\ПЊЗЂАќ\SC8F096ADПЊЗЂАќ\SC8F096_DEMO_C\SC8F096_IIC_Slave_Demo\SC8F096_IIC_Slave_C.c"
	line	123
	global	__size_of_IIC_Isr
	__size_of_IIC_Isr	equ	__end_of_IIC_Isr-_IIC_Isr
	
_IIC_Isr:	
;incstack = 0
	opt	stack 6
; Regs used in _IIC_Isr: [wreg]
psect	intentry,class=CODE,delta=2
global __pintentry
__pintentry:
global interrupt_function
interrupt_function:
	global saved_w
	saved_w	set	btemp+0
	movwf	saved_w
	swapf	status,w
	movwf	(??_IIC_Isr+0)
	movf	pclath,w
	movwf	(??_IIC_Isr+1)
	ljmp	_IIC_Isr
psect	text2
	line	126
	
i1l484:	
;SC8F096_IIC_Slave_C.c: 126: if(IICIF==1)
	bcf	status, 5	;RP0=0, select bank2
	bsf	status, 6	;RP1=1, select bank2
	btfss	(2172/8)^0100h,(2172)&7	;volatile
	goto	u1_21
	goto	u1_20
u1_21:
	goto	i1l76
u1_20:
	line	128
	
i1l486:	
;SC8F096_IIC_Slave_C.c: 127: {
;SC8F096_IIC_Slave_C.c: 128: IICIF =0;
	bcf	(2172/8)^0100h,(2172)&7	;volatile
	line	131
;SC8F096_IIC_Slave_C.c: 131: if(RW==1)
	bsf	status, 5	;RP0=1, select bank3
	btfss	(3218/8)^0180h,(3218)&7	;volatile
	goto	u2_21
	goto	u2_20
u2_21:
	goto	i1l72
u2_20:
	line	133
	
i1l488:	
;SC8F096_IIC_Slave_C.c: 132: {
;SC8F096_IIC_Slave_C.c: 133: IICBUF = 0x55;
	movlw	low(055h)
	movwf	(403)^0180h	;volatile
	line	134
;SC8F096_IIC_Slave_C.c: 134: }
	goto	i1l494
	line	135
	
i1l72:	
	line	137
;SC8F096_IIC_Slave_C.c: 135: else
;SC8F096_IIC_Slave_C.c: 136: {
;SC8F096_IIC_Slave_C.c: 137: if(DA==0)
	btfsc	(3221/8)^0180h,(3221)&7	;volatile
	goto	u3_21
	goto	u3_20
u3_21:
	goto	i1l492
u3_20:
	line	139
	
i1l490:	
;SC8F096_IIC_Slave_C.c: 138: {
;SC8F096_IIC_Slave_C.c: 139: IICBUF;
	movf	(403)^0180h,w	;volatile
	line	141
;SC8F096_IIC_Slave_C.c: 141: }
	goto	i1l494
	line	145
	
i1l492:	
;SC8F096_IIC_Slave_C.c: 142: else
;SC8F096_IIC_Slave_C.c: 143: {
;SC8F096_IIC_Slave_C.c: 145: IICReadData = IICBUF;
	movf	(403)^0180h,w	;volatile
	movwf	(_IICReadData)	;volatile
	line	151
	
i1l494:	
;SC8F096_IIC_Slave_C.c: 146: }
;SC8F096_IIC_Slave_C.c: 147: }
;SC8F096_IIC_Slave_C.c: 151: IICCKP =1;
	bsf	(3204/8)^0180h,(3204)&7	;volatile
	line	154
	
i1l76:	
	movf	(??_IIC_Isr+1),w
	movwf	pclath
	swapf	(??_IIC_Isr+0)^0FFFFFF80h,w
	movwf	status
	swapf	saved_w,f
	swapf	saved_w,w
	retfie
	opt stack 0
GLOBAL	__end_of_IIC_Isr
	__end_of_IIC_Isr:
	signat	_IIC_Isr,89
global	___latbits
___latbits	equ	2
	global	btemp
	btemp set 07Eh

	DABS	1,126,2	;btemp
	global	wtemp0
	wtemp0 set btemp+0
	end
