opt subtitle "Microchip Technology Omniscient Code Generator v1.45 (PRO mode) build 201711160504"

opt pagewidth 120

	opt pm

	processor	SC8F096AD
opt include "H:\MyDownloads\IDE_RAR\SCMCU_IDE_V2.00.16_Beta9\data\include\sc8f096ad.cgen.inc"
clrc	macro
	bcf	3,0
	endm
clrz	macro
	bcf	3,2
	endm
setc	macro
	bsf	3,0
	endm
setz	macro
	bsf	3,2
	endm
skipc	macro
	btfss	3,0
	endm
skipz	macro
	btfss	3,2
	endm
skipnc	macro
	btfsc	3,0
	endm
skipnz	macro
	btfsc	3,2
	endm
# 13 "H:\MyDownloads\IDE_RAR\SCMCU_IDE_V2.00.16_Beta9\data\include\SC8F096AD.h"
INDF EQU 00H ;# 
# 20 "H:\MyDownloads\IDE_RAR\SCMCU_IDE_V2.00.16_Beta9\data\include\SC8F096AD.h"
OPTION_REG EQU 01H ;# 
# 27 "H:\MyDownloads\IDE_RAR\SCMCU_IDE_V2.00.16_Beta9\data\include\SC8F096AD.h"
PCL EQU 02H ;# 
# 34 "H:\MyDownloads\IDE_RAR\SCMCU_IDE_V2.00.16_Beta9\data\include\SC8F096AD.h"
STATUS EQU 03H ;# 
# 41 "H:\MyDownloads\IDE_RAR\SCMCU_IDE_V2.00.16_Beta9\data\include\SC8F096AD.h"
FSR EQU 04H ;# 
# 48 "H:\MyDownloads\IDE_RAR\SCMCU_IDE_V2.00.16_Beta9\data\include\SC8F096AD.h"
TRISB EQU 05H ;# 
# 55 "H:\MyDownloads\IDE_RAR\SCMCU_IDE_V2.00.16_Beta9\data\include\SC8F096AD.h"
PORTB EQU 06H ;# 
# 62 "H:\MyDownloads\IDE_RAR\SCMCU_IDE_V2.00.16_Beta9\data\include\SC8F096AD.h"
WPDB EQU 07H ;# 
# 69 "H:\MyDownloads\IDE_RAR\SCMCU_IDE_V2.00.16_Beta9\data\include\SC8F096AD.h"
WPUB EQU 08H ;# 
# 76 "H:\MyDownloads\IDE_RAR\SCMCU_IDE_V2.00.16_Beta9\data\include\SC8F096AD.h"
IOCB EQU 09H ;# 
# 83 "H:\MyDownloads\IDE_RAR\SCMCU_IDE_V2.00.16_Beta9\data\include\SC8F096AD.h"
PCLATH EQU 0AH ;# 
# 90 "H:\MyDownloads\IDE_RAR\SCMCU_IDE_V2.00.16_Beta9\data\include\SC8F096AD.h"
INTCON EQU 0BH ;# 
# 97 "H:\MyDownloads\IDE_RAR\SCMCU_IDE_V2.00.16_Beta9\data\include\SC8F096AD.h"
QCCON EQU 0CH ;# 
# 104 "H:\MyDownloads\IDE_RAR\SCMCU_IDE_V2.00.16_Beta9\data\include\SC8F096AD.h"
PIR1 EQU 0DH ;# 
# 111 "H:\MyDownloads\IDE_RAR\SCMCU_IDE_V2.00.16_Beta9\data\include\SC8F096AD.h"
PIE1 EQU 0EH ;# 
# 118 "H:\MyDownloads\IDE_RAR\SCMCU_IDE_V2.00.16_Beta9\data\include\SC8F096AD.h"
CMP1CON0 EQU 0FH ;# 
# 125 "H:\MyDownloads\IDE_RAR\SCMCU_IDE_V2.00.16_Beta9\data\include\SC8F096AD.h"
CMP1CON1 EQU 10H ;# 
# 132 "H:\MyDownloads\IDE_RAR\SCMCU_IDE_V2.00.16_Beta9\data\include\SC8F096AD.h"
PR2 EQU 11H ;# 
# 139 "H:\MyDownloads\IDE_RAR\SCMCU_IDE_V2.00.16_Beta9\data\include\SC8F096AD.h"
TMR2 EQU 12H ;# 
# 146 "H:\MyDownloads\IDE_RAR\SCMCU_IDE_V2.00.16_Beta9\data\include\SC8F096AD.h"
T2CON EQU 13H ;# 
# 153 "H:\MyDownloads\IDE_RAR\SCMCU_IDE_V2.00.16_Beta9\data\include\SC8F096AD.h"
OSCCON EQU 14H ;# 
# 160 "H:\MyDownloads\IDE_RAR\SCMCU_IDE_V2.00.16_Beta9\data\include\SC8F096AD.h"
PWMCON0 EQU 15H ;# 
# 167 "H:\MyDownloads\IDE_RAR\SCMCU_IDE_V2.00.16_Beta9\data\include\SC8F096AD.h"
PWMCON1 EQU 16H ;# 
# 174 "H:\MyDownloads\IDE_RAR\SCMCU_IDE_V2.00.16_Beta9\data\include\SC8F096AD.h"
PWMTL EQU 17H ;# 
# 181 "H:\MyDownloads\IDE_RAR\SCMCU_IDE_V2.00.16_Beta9\data\include\SC8F096AD.h"
PWMTH EQU 18H ;# 
# 188 "H:\MyDownloads\IDE_RAR\SCMCU_IDE_V2.00.16_Beta9\data\include\SC8F096AD.h"
PWMD0L EQU 19H ;# 
# 195 "H:\MyDownloads\IDE_RAR\SCMCU_IDE_V2.00.16_Beta9\data\include\SC8F096AD.h"
PWMD1L EQU 1AH ;# 
# 202 "H:\MyDownloads\IDE_RAR\SCMCU_IDE_V2.00.16_Beta9\data\include\SC8F096AD.h"
PWMD4L EQU 1BH ;# 
# 209 "H:\MyDownloads\IDE_RAR\SCMCU_IDE_V2.00.16_Beta9\data\include\SC8F096AD.h"
PWMT4L EQU 1CH ;# 
# 216 "H:\MyDownloads\IDE_RAR\SCMCU_IDE_V2.00.16_Beta9\data\include\SC8F096AD.h"
PWMCON2 EQU 1DH ;# 
# 223 "H:\MyDownloads\IDE_RAR\SCMCU_IDE_V2.00.16_Beta9\data\include\SC8F096AD.h"
PWMDH EQU 1EH ;# 
# 230 "H:\MyDownloads\IDE_RAR\SCMCU_IDE_V2.00.16_Beta9\data\include\SC8F096AD.h"
PWM01DT EQU 1FH ;# 
# 237 "H:\MyDownloads\IDE_RAR\SCMCU_IDE_V2.00.16_Beta9\data\include\SC8F096AD.h"
TMR0 EQU 81H ;# 
# 244 "H:\MyDownloads\IDE_RAR\SCMCU_IDE_V2.00.16_Beta9\data\include\SC8F096AD.h"
TRISA EQU 85H ;# 
# 251 "H:\MyDownloads\IDE_RAR\SCMCU_IDE_V2.00.16_Beta9\data\include\SC8F096AD.h"
PORTA EQU 86H ;# 
# 258 "H:\MyDownloads\IDE_RAR\SCMCU_IDE_V2.00.16_Beta9\data\include\SC8F096AD.h"
WPDA EQU 87H ;# 
# 265 "H:\MyDownloads\IDE_RAR\SCMCU_IDE_V2.00.16_Beta9\data\include\SC8F096AD.h"
WPUA EQU 88H ;# 
# 272 "H:\MyDownloads\IDE_RAR\SCMCU_IDE_V2.00.16_Beta9\data\include\SC8F096AD.h"
IOCA EQU 89H ;# 
# 279 "H:\MyDownloads\IDE_RAR\SCMCU_IDE_V2.00.16_Beta9\data\include\SC8F096AD.h"
ANSEL3 EQU 8CH ;# 
# 286 "H:\MyDownloads\IDE_RAR\SCMCU_IDE_V2.00.16_Beta9\data\include\SC8F096AD.h"
EECON1 EQU 8DH ;# 
# 293 "H:\MyDownloads\IDE_RAR\SCMCU_IDE_V2.00.16_Beta9\data\include\SC8F096AD.h"
EECON2 EQU 8EH ;# 
# 300 "H:\MyDownloads\IDE_RAR\SCMCU_IDE_V2.00.16_Beta9\data\include\SC8F096AD.h"
EEDAT EQU 8FH ;# 
# 307 "H:\MyDownloads\IDE_RAR\SCMCU_IDE_V2.00.16_Beta9\data\include\SC8F096AD.h"
EEDATH EQU 90H ;# 
# 314 "H:\MyDownloads\IDE_RAR\SCMCU_IDE_V2.00.16_Beta9\data\include\SC8F096AD.h"
EEADR EQU 91H ;# 
# 321 "H:\MyDownloads\IDE_RAR\SCMCU_IDE_V2.00.16_Beta9\data\include\SC8F096AD.h"
EEADRH EQU 92H ;# 
# 328 "H:\MyDownloads\IDE_RAR\SCMCU_IDE_V2.00.16_Beta9\data\include\SC8F096AD.h"
ANSEL0 EQU 93H ;# 
# 335 "H:\MyDownloads\IDE_RAR\SCMCU_IDE_V2.00.16_Beta9\data\include\SC8F096AD.h"
ANSEL1 EQU 94H ;# 
# 342 "H:\MyDownloads\IDE_RAR\SCMCU_IDE_V2.00.16_Beta9\data\include\SC8F096AD.h"
ADCON0 EQU 95H ;# 
# 349 "H:\MyDownloads\IDE_RAR\SCMCU_IDE_V2.00.16_Beta9\data\include\SC8F096AD.h"
ADCON1 EQU 96H ;# 
# 356 "H:\MyDownloads\IDE_RAR\SCMCU_IDE_V2.00.16_Beta9\data\include\SC8F096AD.h"
ADRESL EQU 98H ;# 
# 363 "H:\MyDownloads\IDE_RAR\SCMCU_IDE_V2.00.16_Beta9\data\include\SC8F096AD.h"
ADRESH EQU 99H ;# 
# 370 "H:\MyDownloads\IDE_RAR\SCMCU_IDE_V2.00.16_Beta9\data\include\SC8F096AD.h"
CMP2CON0 EQU 9AH ;# 
# 377 "H:\MyDownloads\IDE_RAR\SCMCU_IDE_V2.00.16_Beta9\data\include\SC8F096AD.h"
PWMD2L EQU 9BH ;# 
# 384 "H:\MyDownloads\IDE_RAR\SCMCU_IDE_V2.00.16_Beta9\data\include\SC8F096AD.h"
PWMD3L EQU 9CH ;# 
# 391 "H:\MyDownloads\IDE_RAR\SCMCU_IDE_V2.00.16_Beta9\data\include\SC8F096AD.h"
PWM23DT EQU 9DH ;# 
# 398 "H:\MyDownloads\IDE_RAR\SCMCU_IDE_V2.00.16_Beta9\data\include\SC8F096AD.h"
SEGEN0 EQU 9EH ;# 
# 405 "H:\MyDownloads\IDE_RAR\SCMCU_IDE_V2.00.16_Beta9\data\include\SC8F096AD.h"
CMP2CON1 EQU 9FH ;# 
# 412 "H:\MyDownloads\IDE_RAR\SCMCU_IDE_V2.00.16_Beta9\data\include\SC8F096AD.h"
TRISC EQU 105H ;# 
# 419 "H:\MyDownloads\IDE_RAR\SCMCU_IDE_V2.00.16_Beta9\data\include\SC8F096AD.h"
PORTC EQU 106H ;# 
# 426 "H:\MyDownloads\IDE_RAR\SCMCU_IDE_V2.00.16_Beta9\data\include\SC8F096AD.h"
PORTD EQU 107H ;# 
# 433 "H:\MyDownloads\IDE_RAR\SCMCU_IDE_V2.00.16_Beta9\data\include\SC8F096AD.h"
WPUC EQU 108H ;# 
# 440 "H:\MyDownloads\IDE_RAR\SCMCU_IDE_V2.00.16_Beta9\data\include\SC8F096AD.h"
ANSEL2 EQU 109H ;# 
# 447 "H:\MyDownloads\IDE_RAR\SCMCU_IDE_V2.00.16_Beta9\data\include\SC8F096AD.h"
TMR1L EQU 10CH ;# 
# 454 "H:\MyDownloads\IDE_RAR\SCMCU_IDE_V2.00.16_Beta9\data\include\SC8F096AD.h"
TMR1H EQU 10DH ;# 
# 461 "H:\MyDownloads\IDE_RAR\SCMCU_IDE_V2.00.16_Beta9\data\include\SC8F096AD.h"
T1CON EQU 10EH ;# 
# 468 "H:\MyDownloads\IDE_RAR\SCMCU_IDE_V2.00.16_Beta9\data\include\SC8F096AD.h"
PIR2 EQU 10FH ;# 
# 475 "H:\MyDownloads\IDE_RAR\SCMCU_IDE_V2.00.16_Beta9\data\include\SC8F096AD.h"
PIE2 EQU 110H ;# 
# 482 "H:\MyDownloads\IDE_RAR\SCMCU_IDE_V2.00.16_Beta9\data\include\SC8F096AD.h"
KEYCON0 EQU 111H ;# 
# 489 "H:\MyDownloads\IDE_RAR\SCMCU_IDE_V2.00.16_Beta9\data\include\SC8F096AD.h"
KEYCON1 EQU 112H ;# 
# 496 "H:\MyDownloads\IDE_RAR\SCMCU_IDE_V2.00.16_Beta9\data\include\SC8F096AD.h"
KEYCON2 EQU 113H ;# 
# 503 "H:\MyDownloads\IDE_RAR\SCMCU_IDE_V2.00.16_Beta9\data\include\SC8F096AD.h"
TRISD EQU 114H ;# 
# 510 "H:\MyDownloads\IDE_RAR\SCMCU_IDE_V2.00.16_Beta9\data\include\SC8F096AD.h"
WPUD EQU 115H ;# 
# 517 "H:\MyDownloads\IDE_RAR\SCMCU_IDE_V2.00.16_Beta9\data\include\SC8F096AD.h"
KEYDATAL EQU 116H ;# 
# 524 "H:\MyDownloads\IDE_RAR\SCMCU_IDE_V2.00.16_Beta9\data\include\SC8F096AD.h"
KEYDATAH EQU 117H ;# 
# 531 "H:\MyDownloads\IDE_RAR\SCMCU_IDE_V2.00.16_Beta9\data\include\SC8F096AD.h"
TXSTA0 EQU 118H ;# 
# 538 "H:\MyDownloads\IDE_RAR\SCMCU_IDE_V2.00.16_Beta9\data\include\SC8F096AD.h"
RCSTA0 EQU 119H ;# 
# 545 "H:\MyDownloads\IDE_RAR\SCMCU_IDE_V2.00.16_Beta9\data\include\SC8F096AD.h"
SPBRG0 EQU 11AH ;# 
# 552 "H:\MyDownloads\IDE_RAR\SCMCU_IDE_V2.00.16_Beta9\data\include\SC8F096AD.h"
TXREG0 EQU 11BH ;# 
# 559 "H:\MyDownloads\IDE_RAR\SCMCU_IDE_V2.00.16_Beta9\data\include\SC8F096AD.h"
RCREG0 EQU 11CH ;# 
# 566 "H:\MyDownloads\IDE_RAR\SCMCU_IDE_V2.00.16_Beta9\data\include\SC8F096AD.h"
LCDCON0 EQU 11DH ;# 
# 573 "H:\MyDownloads\IDE_RAR\SCMCU_IDE_V2.00.16_Beta9\data\include\SC8F096AD.h"
LCDCON1 EQU 11EH ;# 
# 580 "H:\MyDownloads\IDE_RAR\SCMCU_IDE_V2.00.16_Beta9\data\include\SC8F096AD.h"
SEGEN1 EQU 11FH ;# 
# 587 "H:\MyDownloads\IDE_RAR\SCMCU_IDE_V2.00.16_Beta9\data\include\SC8F096AD.h"
SEGEN2 EQU 181H ;# 
# 594 "H:\MyDownloads\IDE_RAR\SCMCU_IDE_V2.00.16_Beta9\data\include\SC8F096AD.h"
TXSTA1 EQU 185H ;# 
# 601 "H:\MyDownloads\IDE_RAR\SCMCU_IDE_V2.00.16_Beta9\data\include\SC8F096AD.h"
RCSTA1 EQU 186H ;# 
# 608 "H:\MyDownloads\IDE_RAR\SCMCU_IDE_V2.00.16_Beta9\data\include\SC8F096AD.h"
TXREG1 EQU 187H ;# 
# 615 "H:\MyDownloads\IDE_RAR\SCMCU_IDE_V2.00.16_Beta9\data\include\SC8F096AD.h"
RCREG1 EQU 188H ;# 
# 622 "H:\MyDownloads\IDE_RAR\SCMCU_IDE_V2.00.16_Beta9\data\include\SC8F096AD.h"
SPBRG1 EQU 189H ;# 
# 629 "H:\MyDownloads\IDE_RAR\SCMCU_IDE_V2.00.16_Beta9\data\include\SC8F096AD.h"
OPACON EQU 18CH ;# 
# 636 "H:\MyDownloads\IDE_RAR\SCMCU_IDE_V2.00.16_Beta9\data\include\SC8F096AD.h"
OPAADJ EQU 18DH ;# 
# 643 "H:\MyDownloads\IDE_RAR\SCMCU_IDE_V2.00.16_Beta9\data\include\SC8F096AD.h"
LEDCTR0 EQU 18EH ;# 
# 650 "H:\MyDownloads\IDE_RAR\SCMCU_IDE_V2.00.16_Beta9\data\include\SC8F096AD.h"
LEDCTR1 EQU 18FH ;# 
# 657 "H:\MyDownloads\IDE_RAR\SCMCU_IDE_V2.00.16_Beta9\data\include\SC8F096AD.h"
IICCON EQU 190H ;# 
# 664 "H:\MyDownloads\IDE_RAR\SCMCU_IDE_V2.00.16_Beta9\data\include\SC8F096AD.h"
IICCON2 EQU 191H ;# 
# 671 "H:\MyDownloads\IDE_RAR\SCMCU_IDE_V2.00.16_Beta9\data\include\SC8F096AD.h"
IICSTAT EQU 192H ;# 
# 678 "H:\MyDownloads\IDE_RAR\SCMCU_IDE_V2.00.16_Beta9\data\include\SC8F096AD.h"
IICBUF EQU 193H ;# 
# 685 "H:\MyDownloads\IDE_RAR\SCMCU_IDE_V2.00.16_Beta9\data\include\SC8F096AD.h"
IICADD EQU 194H ;# 
# 692 "H:\MyDownloads\IDE_RAR\SCMCU_IDE_V2.00.16_Beta9\data\include\SC8F096AD.h"
CC0CON EQU 195H ;# 
# 699 "H:\MyDownloads\IDE_RAR\SCMCU_IDE_V2.00.16_Beta9\data\include\SC8F096AD.h"
CC1CON EQU 196H ;# 
# 706 "H:\MyDownloads\IDE_RAR\SCMCU_IDE_V2.00.16_Beta9\data\include\SC8F096AD.h"
PDCON0 EQU 197H ;# 
# 713 "H:\MyDownloads\IDE_RAR\SCMCU_IDE_V2.00.16_Beta9\data\include\SC8F096AD.h"
PDCON1 EQU 198H ;# 
# 720 "H:\MyDownloads\IDE_RAR\SCMCU_IDE_V2.00.16_Beta9\data\include\SC8F096AD.h"
PDADD EQU 199H ;# 
# 727 "H:\MyDownloads\IDE_RAR\SCMCU_IDE_V2.00.16_Beta9\data\include\SC8F096AD.h"
PDRDATA EQU 19AH ;# 
# 734 "H:\MyDownloads\IDE_RAR\SCMCU_IDE_V2.00.16_Beta9\data\include\SC8F096AD.h"
PDSDATA EQU 19BH ;# 
# 741 "H:\MyDownloads\IDE_RAR\SCMCU_IDE_V2.00.16_Beta9\data\include\SC8F096AD.h"
LCDADD EQU 19CH ;# 
# 748 "H:\MyDownloads\IDE_RAR\SCMCU_IDE_V2.00.16_Beta9\data\include\SC8F096AD.h"
LCDDATA EQU 19DH ;# 
# 755 "H:\MyDownloads\IDE_RAR\SCMCU_IDE_V2.00.16_Beta9\data\include\SC8F096AD.h"
COMEN EQU 19EH ;# 
# 762 "H:\MyDownloads\IDE_RAR\SCMCU_IDE_V2.00.16_Beta9\data\include\SC8F096AD.h"
SEGEN3 EQU 19FH ;# 
	FNCALL	_main,_DelayXms
	FNCALL	_main,_Init_System
	FNCALL	_main,_Sleep_Mode
	FNCALL	_Sleep_Mode,_Init_System
	FNROOT	_main
	global	_PIR1
_PIR1	set	0xD
	global	_PIE1
_PIE1	set	0xE
	global	_IOCB
_IOCB	set	0x9
	global	_OSCCON
_OSCCON	set	0x14
	global	_QCCON
_QCCON	set	0xC
	global	_PWMCON0
_PWMCON0	set	0x15
	global	_CMP1CON0
_CMP1CON0	set	0xF
	global	_WPUB
_WPUB	set	0x8
	global	_PORTB
_PORTB	set	0x6
	global	_TRISB
_TRISB	set	0x5
	global	_OPTION_REG
_OPTION_REG	set	0x1
	global	_INTCON
_INTCON	set	0xB
	global	_RBIF
_RBIF	set	0x58
	global	_RAIF
_RAIF	set	0x6B
	global	_GIE
_GIE	set	0x5F
	global	_RBIE
_RBIE	set	0x5B
	global	_PEIE
_PEIE	set	0x5E
	global	_RAIE
_RAIE	set	0x73
	global	_RB6
_RB6	set	0x36
	global	_IOCA
_IOCA	set	0x89
	global	_CMP2CON0
_CMP2CON0	set	0x9A
	global	_ADCON1
_ADCON1	set	0x96
	global	_ADCON0
_ADCON0	set	0x95
	global	_WPUA
_WPUA	set	0x88
	global	_PORTA
_PORTA	set	0x86
	global	_TRISA
_TRISA	set	0x85
	global	_WPUC
_WPUC	set	0x108
	global	_PIR2
_PIR2	set	0x10F
	global	_PIE2
_PIE2	set	0x110
	global	_KEYCON2
_KEYCON2	set	0x113
	global	_KEYCON0
_KEYCON0	set	0x111
	global	_PORTD
_PORTD	set	0x107
	global	_TRISD
_TRISD	set	0x114
	global	_PORTC
_PORTC	set	0x106
	global	_TRISC
_TRISC	set	0x105
	global	_OPACON
_OPACON	set	0x18C
	global	_CC1CON
_CC1CON	set	0x196
	global	_CC0CON
_CC0CON	set	0x195
; #config settings
	file	"SC8F096_Sleep_Demo.as"
	line	#
psect cinit,class=CODE,delta=2
global start_initialization
start_initialization:

global __initialization
__initialization:
psect cinit,class=CODE,delta=2,merge=1
global end_of_initialization,__end_of__initialization

;End of C runtime variable initialization code

end_of_initialization:
__end_of__initialization:
clrf status
ljmp _main	;jump to C main() function
psect	cstackCOMMON,class=COMMON,space=1,noexec
global __pcstackCOMMON
__pcstackCOMMON:
?_Init_System:	; 1 bytes @ 0x0
??_Init_System:	; 1 bytes @ 0x0
?_Sleep_Mode:	; 1 bytes @ 0x0
??_Sleep_Mode:	; 1 bytes @ 0x0
?_DelayXms:	; 1 bytes @ 0x0
??_DelayXms:	; 1 bytes @ 0x0
?_main:	; 1 bytes @ 0x0
	global	DelayXms@x
DelayXms@x:	; 1 bytes @ 0x0
	ds	1
	global	DelayXms@i
DelayXms@i:	; 1 bytes @ 0x1
	ds	1
	global	DelayXms@j
DelayXms@j:	; 1 bytes @ 0x2
	ds	1
??_main:	; 1 bytes @ 0x3
;!
;!Data Sizes:
;!    Strings     0
;!    Constant    0
;!    Data        0
;!    BSS         0
;!    Persistent  0
;!    Stack       0
;!
;!Auto Spaces:
;!    Space          Size  Autos    Used
;!    COMMON           14      3       3
;!    BANK0            80      0       0
;!    BANK1            80      0       0
;!    BANK3            80      0       0
;!    BANK2            80      0       0

;!
;!Pointer List with Targets:
;!
;!    None.


;!
;!Critical Paths under _main in COMMON
;!
;!    _main->_DelayXms
;!
;!Critical Paths under _main in BANK0
;!
;!    None.
;!
;!Critical Paths under _main in BANK1
;!
;!    None.
;!
;!Critical Paths under _main in BANK3
;!
;!    None.
;!
;!Critical Paths under _main in BANK2
;!
;!    None.

;;
;;Main: autosize = 0, tempsize = 0, incstack = 0, save=0
;;

;!
;!Call Graph Tables:
;!
;! ---------------------------------------------------------------------------------
;! (Depth) Function   	        Calls       Base Space   Used Autos Params    Refs
;! ---------------------------------------------------------------------------------
;! (0) _main                                                 0     0      0      75
;!                           _DelayXms
;!                        _Init_System
;!                         _Sleep_Mode
;! ---------------------------------------------------------------------------------
;! (1) _Sleep_Mode                                           0     0      0       0
;!                        _Init_System
;! ---------------------------------------------------------------------------------
;! (2) _Init_System                                          0     0      0       0
;! ---------------------------------------------------------------------------------
;! (1) _DelayXms                                             3     3      0      75
;!                                              0 COMMON     3     3      0
;! ---------------------------------------------------------------------------------
;! Estimated maximum stack depth 2
;! ---------------------------------------------------------------------------------
;!
;! Call Graph Graphs:
;!
;! _main (ROOT)
;!   _DelayXms
;!   _Init_System
;!   _Sleep_Mode
;!     _Init_System
;!

;! Address spaces:

;!Name               Size   Autos  Total    Cost      Usage
;!BITCOMMON            E      0       0       0        0.0%
;!NULL                 0      0       0       0        0.0%
;!CODE                 0      0       0       0        0.0%
;!COMMON               E      3       3       1       21.4%
;!BITSFR0              0      0       0       1        0.0%
;!SFR0                 0      0       0       1        0.0%
;!BITSFR1              0      0       0       2        0.0%
;!SFR1                 0      0       0       2        0.0%
;!STACK                0      0       0       2        0.0%
;!BITBANK0            50      0       0       3        0.0%
;!BANK0               50      0       0       4        0.0%
;!BITSFR3              0      0       0       4        0.0%
;!SFR3                 0      0       0       4        0.0%
;!BITBANK1            50      0       0       5        0.0%
;!BITSFR2              0      0       0       5        0.0%
;!SFR2                 0      0       0       5        0.0%
;!BANK1               50      0       0       6        0.0%
;!BITBANK3            50      0       0       7        0.0%
;!BANK3               50      0       0       8        0.0%
;!BITBANK2            50      0       0       9        0.0%
;!BANK2               50      0       0      10        0.0%
;!ABS                  0      0       0      11        0.0%
;!DATA                 0      0       0      12        0.0%

	global	_main

;; *************** function _main *****************
;; Defined at:
;;		line 37 in file "H:\MyDownloads\綱츠蝎&꿎桿괩멩\역랙관\SC8F096AD역랙관\SC8F096_DEMO_C\SC8F096_Sleep_Demo\SC8F096_Sleep_Demo.c"
;; Parameters:    Size  Location     Type
;;		None
;; Auto vars:     Size  Location     Type
;;		None
;; Return value:  Size  Location     Type
;;                  1    wreg      void 
;; Registers used:
;;		wreg, status,2, status,0, pclath, cstack
;; Tracked objects:
;;		On entry : B00/0
;;		On exit  : 300/200
;;		Unchanged: 0/0
;; Data sizes:     COMMON   BANK0   BANK1   BANK3   BANK2
;;      Params:         0       0       0       0       0
;;      Locals:         0       0       0       0       0
;;      Temps:          0       0       0       0       0
;;      Totals:         0       0       0       0       0
;;Total ram usage:        0 bytes
;; Hardware stack levels required when called:    2
;; This function calls:
;;		_DelayXms
;;		_Init_System
;;		_Sleep_Mode
;; This function is called by:
;;		Startup code after reset
;; This function uses a non-reentrant model
;;
psect	maintext,global,class=CODE,delta=2,split=1,group=0
	file	"H:\MyDownloads\綱츠蝎&꿎桿괩멩\역랙관\SC8F096AD역랙관\SC8F096_DEMO_C\SC8F096_Sleep_Demo\SC8F096_Sleep_Demo.c"
	line	37
global __pmaintext
__pmaintext:	;psect for function _main
psect	maintext
	file	"H:\MyDownloads\綱츠蝎&꿎桿괩멩\역랙관\SC8F096AD역랙관\SC8F096_DEMO_C\SC8F096_Sleep_Demo\SC8F096_Sleep_Demo.c"
	line	37
	global	__size_of_main
	__size_of_main	equ	__end_of_main-_main
	
_main:	
;incstack = 0
	opt	stack 6
; Regs used in _main: [wreg+status,2+status,0+pclath+cstack]
	line	39
	
l571:	
;SC8F096_Sleep_Demo.c: 39: Init_System();
	fcall	_Init_System
	line	42
	
l573:	
;SC8F096_Sleep_Demo.c: 41: {
;SC8F096_Sleep_Demo.c: 42: RB6=1;
	bcf	status, 6	;RP1=0, select bank0
	bsf	(54/8),(54)&7	;volatile
	line	43
;SC8F096_Sleep_Demo.c: 43: DelayXms(100);
	movlw	low(064h)
	fcall	_DelayXms
	line	44
	
l575:	
;SC8F096_Sleep_Demo.c: 44: RB6 = 0;
	bcf	status, 5	;RP0=0, select bank0
	bcf	status, 6	;RP1=0, select bank0
	bcf	(54/8),(54)&7	;volatile
	line	45
;SC8F096_Sleep_Demo.c: 45: DelayXms(100);
	movlw	low(064h)
	fcall	_DelayXms
	line	46
	
l577:	
;SC8F096_Sleep_Demo.c: 46: RB6=1;
	bcf	status, 5	;RP0=0, select bank0
	bcf	status, 6	;RP1=0, select bank0
	bsf	(54/8),(54)&7	;volatile
	line	47
;SC8F096_Sleep_Demo.c: 47: DelayXms(100);
	movlw	low(064h)
	fcall	_DelayXms
	line	48
;SC8F096_Sleep_Demo.c: 48: Sleep_Mode();
	fcall	_Sleep_Mode
	goto	l573
	global	start
	ljmp	start
	opt stack 0
	line	50
GLOBAL	__end_of_main
	__end_of_main:
	signat	_main,89
	global	_Sleep_Mode

;; *************** function _Sleep_Mode *****************
;; Defined at:
;;		line 60 in file "H:\MyDownloads\綱츠蝎&꿎桿괩멩\역랙관\SC8F096AD역랙관\SC8F096_DEMO_C\SC8F096_Sleep_Demo\SC8F096_Sleep_Demo.c"
;; Parameters:    Size  Location     Type
;;		None
;; Auto vars:     Size  Location     Type
;;		None
;; Return value:  Size  Location     Type
;;                  1    wreg      void 
;; Registers used:
;;		wreg, status,2, status,0, pclath, cstack
;; Tracked objects:
;;		On entry : 0/0
;;		On exit  : 300/200
;;		Unchanged: 0/0
;; Data sizes:     COMMON   BANK0   BANK1   BANK3   BANK2
;;      Params:         0       0       0       0       0
;;      Locals:         0       0       0       0       0
;;      Temps:          0       0       0       0       0
;;      Totals:         0       0       0       0       0
;;Total ram usage:        0 bytes
;; Hardware stack levels used:    1
;; Hardware stack levels required when called:    1
;; This function calls:
;;		_Init_System
;; This function is called by:
;;		_main
;; This function uses a non-reentrant model
;;
psect	text1,local,class=CODE,delta=2,merge=1,group=0
	line	60
global __ptext1
__ptext1:	;psect for function _Sleep_Mode
psect	text1
	file	"H:\MyDownloads\綱츠蝎&꿎桿괩멩\역랙관\SC8F096AD역랙관\SC8F096_DEMO_C\SC8F096_Sleep_Demo\SC8F096_Sleep_Demo.c"
	line	60
	global	__size_of_Sleep_Mode
	__size_of_Sleep_Mode	equ	__end_of_Sleep_Mode-_Sleep_Mode
	
_Sleep_Mode:	
;incstack = 0
	opt	stack 6
; Regs used in _Sleep_Mode: [wreg+status,2+status,0+pclath+cstack]
	line	62
	
l523:	
;SC8F096_Sleep_Demo.c: 62: INTCON = 0;
	clrf	(11)	;volatile
	line	64
;SC8F096_Sleep_Demo.c: 64: OPTION_REG = 0;
	bcf	status, 5	;RP0=0, select bank0
	bcf	status, 6	;RP1=0, select bank0
	clrf	(1)	;volatile
	line	66
	
l525:	
;SC8F096_Sleep_Demo.c: 66: TRISA = 0B00000001;
	movlw	low(01h)
	bsf	status, 5	;RP0=1, select bank1
	movwf	(133)^080h	;volatile
	line	67
	
l527:	
;SC8F096_Sleep_Demo.c: 67: PORTA = 0B00000000;
	clrf	(134)^080h	;volatile
	line	68
;SC8F096_Sleep_Demo.c: 68: WPUA = 0B00000001;
	movlw	low(01h)
	movwf	(136)^080h	;volatile
	line	70
;SC8F096_Sleep_Demo.c: 70: TRISB = 0B00001000;
	movlw	low(08h)
	bcf	status, 5	;RP0=0, select bank0
	movwf	(5)	;volatile
	line	71
	
l529:	
;SC8F096_Sleep_Demo.c: 71: PORTB = 0B00000000;
	clrf	(6)	;volatile
	line	72
	
l531:	
;SC8F096_Sleep_Demo.c: 72: WPUB = 0B00001000;
	movlw	low(08h)
	movwf	(8)	;volatile
	line	74
;SC8F096_Sleep_Demo.c: 74: TRISC = 0B00000000;
	bsf	status, 6	;RP1=1, select bank2
	clrf	(261)^0100h	;volatile
	line	75
;SC8F096_Sleep_Demo.c: 75: PORTC = 0B00000000;
	clrf	(262)^0100h	;volatile
	line	77
;SC8F096_Sleep_Demo.c: 77: TRISD = 0B00000000;
	clrf	(276)^0100h	;volatile
	line	78
;SC8F096_Sleep_Demo.c: 78: PORTD = 0B00000000;
	clrf	(263)^0100h	;volatile
	line	80
;SC8F096_Sleep_Demo.c: 80: ADCON0 = 0;
	bsf	status, 5	;RP0=1, select bank1
	bcf	status, 6	;RP1=0, select bank1
	clrf	(149)^080h	;volatile
	line	81
;SC8F096_Sleep_Demo.c: 81: ADCON1 = 0;
	clrf	(150)^080h	;volatile
	line	82
;SC8F096_Sleep_Demo.c: 82: CMP1CON0 = 0;
	bcf	status, 5	;RP0=0, select bank0
	clrf	(15)	;volatile
	line	83
;SC8F096_Sleep_Demo.c: 83: CMP2CON0 = 0;
	bsf	status, 5	;RP0=1, select bank1
	clrf	(154)^080h	;volatile
	line	84
;SC8F096_Sleep_Demo.c: 84: PWMCON0 = 0;
	bcf	status, 5	;RP0=0, select bank0
	clrf	(21)	;volatile
	line	85
;SC8F096_Sleep_Demo.c: 85: KEYCON0 = 0;
	bsf	status, 6	;RP1=1, select bank2
	clrf	(273)^0100h	;volatile
	line	86
;SC8F096_Sleep_Demo.c: 86: KEYCON2 = 0;
	clrf	(275)^0100h	;volatile
	line	87
;SC8F096_Sleep_Demo.c: 87: QCCON = 0;
	bcf	status, 6	;RP1=0, select bank0
	clrf	(12)	;volatile
	line	88
;SC8F096_Sleep_Demo.c: 88: CC0CON = 0;
	bsf	status, 5	;RP0=1, select bank3
	bsf	status, 6	;RP1=1, select bank3
	clrf	(405)^0180h	;volatile
	line	89
;SC8F096_Sleep_Demo.c: 89: CC1CON = 0;
	clrf	(406)^0180h	;volatile
	line	90
;SC8F096_Sleep_Demo.c: 90: OPACON = 0;
	clrf	(396)^0180h	;volsfr
	line	92
	
l533:	
;SC8F096_Sleep_Demo.c: 92: OSCCON = 0X70;
	movlw	low(070h)
	bcf	status, 5	;RP0=0, select bank0
	bcf	status, 6	;RP1=0, select bank0
	movwf	(20)	;volatile
	line	94
	
l535:	
;SC8F096_Sleep_Demo.c: 94: IOCA = 0B00000001;
	movlw	low(01h)
	bsf	status, 5	;RP0=1, select bank1
	movwf	(137)^080h	;volatile
	line	95
	
l537:	
;SC8F096_Sleep_Demo.c: 95: IOCB = 0B00001000;
	movlw	low(08h)
	bcf	status, 5	;RP0=0, select bank0
	movwf	(9)	;volatile
	line	97
	
l539:	
;SC8F096_Sleep_Demo.c: 97: RAIE = 1;
	bsf	(115/8),(115)&7	;volatile
	line	98
	
l541:	
;SC8F096_Sleep_Demo.c: 98: PEIE = 1;
	bsf	(94/8),(94)&7	;volatile
	line	99
	
l543:	
;SC8F096_Sleep_Demo.c: 99: RBIE = 1;
	bsf	(91/8),(91)&7	;volatile
	line	100
	
l545:	
;SC8F096_Sleep_Demo.c: 100: GIE = 0;
	bcf	(95/8),(95)&7	;volatile
	line	102
	
l547:	
;SC8F096_Sleep_Demo.c: 102: PIE1 &= 0X08;
	movlw	low(08h)
	andwf	(14),f	;volatile
	line	103
	
l549:	
;SC8F096_Sleep_Demo.c: 103: PIR1 = 0;
	clrf	(13)	;volatile
	line	104
	
l551:	
;SC8F096_Sleep_Demo.c: 104: PIE2 = 0;
	bsf	status, 6	;RP1=1, select bank2
	clrf	(272)^0100h	;volatile
	line	105
	
l553:	
;SC8F096_Sleep_Demo.c: 105: PIR2 = 0;
	clrf	(271)^0100h	;volatile
	line	106
	
l555:	
;SC8F096_Sleep_Demo.c: 106: INTCON &= 0XC8;
	movlw	low(0C8h)
	andwf	(11),f	;volatile
	line	108
;SC8F096_Sleep_Demo.c: 108: PORTA;
	bsf	status, 5	;RP0=1, select bank1
	bcf	status, 6	;RP1=0, select bank1
	movf	(134)^080h,w	;volatile
	line	109
	
l557:	
;SC8F096_Sleep_Demo.c: 109: RAIF = 0;
	bcf	status, 5	;RP0=0, select bank0
	bcf	(107/8),(107)&7	;volatile
	line	110
;SC8F096_Sleep_Demo.c: 110: PORTB;
	movf	(6),w	;volatile
	line	111
	
l559:	
;SC8F096_Sleep_Demo.c: 111: RBIF = 0;
	bcf	(88/8),(88)&7	;volatile
	line	112
# 112 "H:\MyDownloads\綱츠蝎&꿎桿괩멩\역랙관\SC8F096AD역랙관\SC8F096_DEMO_C\SC8F096_Sleep_Demo\SC8F096_Sleep_Demo.c"
clrwdt ;# 
	line	114
# 114 "H:\MyDownloads\綱츠蝎&꿎桿괩멩\역랙관\SC8F096AD역랙관\SC8F096_DEMO_C\SC8F096_Sleep_Demo\SC8F096_Sleep_Demo.c"
sleep ;# 
	line	116
# 116 "H:\MyDownloads\綱츠蝎&꿎桿괩멩\역랙관\SC8F096AD역랙관\SC8F096_DEMO_C\SC8F096_Sleep_Demo\SC8F096_Sleep_Demo.c"
nop ;# 
	line	117
# 117 "H:\MyDownloads\綱츠蝎&꿎桿괩멩\역랙관\SC8F096AD역랙관\SC8F096_DEMO_C\SC8F096_Sleep_Demo\SC8F096_Sleep_Demo.c"
clrwdt ;# 
psect	text1
	line	118
	
l561:	
;SC8F096_Sleep_Demo.c: 118: if(RAIF) RAIF = 0;
	bcf	status, 5	;RP0=0, select bank0
	bcf	status, 6	;RP1=0, select bank0
	btfss	(107/8),(107)&7	;volatile
	goto	u31
	goto	u30
u31:
	goto	l98
u30:
	
l563:	
	bcf	(107/8),(107)&7	;volatile
	
l98:	
	line	119
;SC8F096_Sleep_Demo.c: 119: if(RBIF) RBIF = 0;
	btfss	(88/8),(88)&7	;volatile
	goto	u41
	goto	u40
u41:
	goto	l567
u40:
	
l565:	
	bcf	(88/8),(88)&7	;volatile
	line	120
	
l567:	
;SC8F096_Sleep_Demo.c: 120: PORTA ^= 0X08;
	movlw	low(08h)
	bsf	status, 5	;RP0=1, select bank1
	xorwf	(134)^080h,f	;volatile
	line	121
	
l569:	
;SC8F096_Sleep_Demo.c: 121: Init_System();
	fcall	_Init_System
	line	122
	
l100:	
	return
	opt stack 0
GLOBAL	__end_of_Sleep_Mode
	__end_of_Sleep_Mode:
	signat	_Sleep_Mode,89
	global	_Init_System

;; *************** function _Init_System *****************
;; Defined at:
;;		line 131 in file "H:\MyDownloads\綱츠蝎&꿎桿괩멩\역랙관\SC8F096AD역랙관\SC8F096_DEMO_C\SC8F096_Sleep_Demo\SC8F096_Sleep_Demo.c"
;; Parameters:    Size  Location     Type
;;		None
;; Auto vars:     Size  Location     Type
;;		None
;; Return value:  Size  Location     Type
;;                  1    wreg      void 
;; Registers used:
;;		wreg, status,2
;; Tracked objects:
;;		On entry : 200/0
;;		On exit  : 300/200
;;		Unchanged: 0/0
;; Data sizes:     COMMON   BANK0   BANK1   BANK3   BANK2
;;      Params:         0       0       0       0       0
;;      Locals:         0       0       0       0       0
;;      Temps:          0       0       0       0       0
;;      Totals:         0       0       0       0       0
;;Total ram usage:        0 bytes
;; Hardware stack levels used:    1
;; This function calls:
;;		Nothing
;; This function is called by:
;;		_main
;;		_Sleep_Mode
;; This function uses a non-reentrant model
;;
psect	text2,local,class=CODE,delta=2,merge=1,group=0
	line	131
global __ptext2
__ptext2:	;psect for function _Init_System
psect	text2
	file	"H:\MyDownloads\綱츠蝎&꿎桿괩멩\역랙관\SC8F096AD역랙관\SC8F096_DEMO_C\SC8F096_Sleep_Demo\SC8F096_Sleep_Demo.c"
	line	131
	global	__size_of_Init_System
	__size_of_Init_System	equ	__end_of_Init_System-_Init_System
	
_Init_System:	
;incstack = 0
	opt	stack 6
; Regs used in _Init_System: [wreg+status,2]
	line	133
	
l479:	
# 133 "H:\MyDownloads\綱츠蝎&꿎桿괩멩\역랙관\SC8F096AD역랙관\SC8F096_DEMO_C\SC8F096_Sleep_Demo\SC8F096_Sleep_Demo.c"
nop ;# 
	line	134
# 134 "H:\MyDownloads\綱츠蝎&꿎桿괩멩\역랙관\SC8F096AD역랙관\SC8F096_DEMO_C\SC8F096_Sleep_Demo\SC8F096_Sleep_Demo.c"
clrwdt ;# 
psect	text2
	line	135
	
l481:	
;SC8F096_Sleep_Demo.c: 135: INTCON = 0;
	clrf	(11)	;volatile
	line	136
	
l483:	
;SC8F096_Sleep_Demo.c: 136: OSCCON = 0X72;
	movlw	low(072h)
	bcf	status, 5	;RP0=0, select bank0
	bcf	status, 6	;RP1=0, select bank0
	movwf	(20)	;volatile
	line	137
	
l485:	
;SC8F096_Sleep_Demo.c: 137: OPTION_REG = 0;
	clrf	(1)	;volatile
	line	139
;SC8F096_Sleep_Demo.c: 139: WPUA = 0B00000001;
	movlw	low(01h)
	bsf	status, 5	;RP0=1, select bank1
	movwf	(136)^080h	;volatile
	line	140
;SC8F096_Sleep_Demo.c: 140: WPUB = 0B00001000;
	movlw	low(08h)
	bcf	status, 5	;RP0=0, select bank0
	movwf	(8)	;volatile
	line	141
	
l487:	
;SC8F096_Sleep_Demo.c: 141: WPUC = 0B00000000;
	bsf	status, 6	;RP1=1, select bank2
	clrf	(264)^0100h	;volatile
	line	143
	
l489:	
;SC8F096_Sleep_Demo.c: 143: TRISA = 0B00000001;
	movlw	low(01h)
	bsf	status, 5	;RP0=1, select bank1
	bcf	status, 6	;RP1=0, select bank1
	movwf	(133)^080h	;volatile
	line	144
	
l491:	
;SC8F096_Sleep_Demo.c: 144: TRISB = 0B00001000;
	movlw	low(08h)
	bcf	status, 5	;RP0=0, select bank0
	movwf	(5)	;volatile
	line	145
	
l493:	
;SC8F096_Sleep_Demo.c: 145: TRISC = 0B00000000;
	bsf	status, 6	;RP1=1, select bank2
	clrf	(261)^0100h	;volatile
	line	146
	
l495:	
;SC8F096_Sleep_Demo.c: 146: TRISD = 0B00000000;
	clrf	(276)^0100h	;volatile
	line	149
	
l497:	
;SC8F096_Sleep_Demo.c: 149: PORTB = 0B00000000;
	bcf	status, 6	;RP1=0, select bank0
	clrf	(6)	;volatile
	line	150
	
l499:	
;SC8F096_Sleep_Demo.c: 150: PORTC = 0B00000000;
	bsf	status, 6	;RP1=1, select bank2
	clrf	(262)^0100h	;volatile
	line	151
	
l501:	
;SC8F096_Sleep_Demo.c: 151: PORTD = 0B00000000;
	clrf	(263)^0100h	;volatile
	line	152
	
l103:	
	return
	opt stack 0
GLOBAL	__end_of_Init_System
	__end_of_Init_System:
	signat	_Init_System,89
	global	_DelayXms

;; *************** function _DelayXms *****************
;; Defined at:
;;		line 25 in file "H:\MyDownloads\綱츠蝎&꿎桿괩멩\역랙관\SC8F096AD역랙관\SC8F096_DEMO_C\SC8F096_Sleep_Demo\SC8F096_Sleep_Demo.c"
;; Parameters:    Size  Location     Type
;;  x               1    wreg     unsigned char 
;; Auto vars:     Size  Location     Type
;;  x               1    0[COMMON] unsigned char 
;;  j               1    2[COMMON] unsigned char 
;;  i               1    1[COMMON] unsigned char 
;; Return value:  Size  Location     Type
;;                  1    wreg      void 
;; Registers used:
;;		wreg, status,2, status,0
;; Tracked objects:
;;		On entry : 300/0
;;		On exit  : 0/0
;;		Unchanged: 0/0
;; Data sizes:     COMMON   BANK0   BANK1   BANK3   BANK2
;;      Params:         0       0       0       0       0
;;      Locals:         3       0       0       0       0
;;      Temps:          0       0       0       0       0
;;      Totals:         3       0       0       0       0
;;Total ram usage:        3 bytes
;; Hardware stack levels used:    1
;; This function calls:
;;		Nothing
;; This function is called by:
;;		_main
;; This function uses a non-reentrant model
;;
psect	text3,local,class=CODE,delta=2,merge=1,group=0
	line	25
global __ptext3
__ptext3:	;psect for function _DelayXms
psect	text3
	file	"H:\MyDownloads\綱츠蝎&꿎桿괩멩\역랙관\SC8F096AD역랙관\SC8F096_DEMO_C\SC8F096_Sleep_Demo\SC8F096_Sleep_Demo.c"
	line	25
	global	__size_of_DelayXms
	__size_of_DelayXms	equ	__end_of_DelayXms-_DelayXms
	
_DelayXms:	
;incstack = 0
	opt	stack 7
; Regs used in _DelayXms: [wreg+status,2+status,0]
;DelayXms@x stored from wreg
	movwf	(DelayXms@x)
	line	28
	
l503:	
;SC8F096_Sleep_Demo.c: 27: unsigned char i,j;
;SC8F096_Sleep_Demo.c: 28: for(i=x;i>0;i--)
	movf	(DelayXms@x),w
	movwf	(DelayXms@i)
	
l505:	
	movf	((DelayXms@i)),w
	btfss	status,2
	goto	u11
	goto	u10
u11:
	goto	l83
u10:
	goto	l87
	line	29
	
l83:	
	line	30
# 30 "H:\MyDownloads\綱츠蝎&꿎桿괩멩\역랙관\SC8F096AD역랙관\SC8F096_DEMO_C\SC8F096_Sleep_Demo\SC8F096_Sleep_Demo.c"
clrwdt ;# 
psect	text3
	line	31
	
l509:	
;SC8F096_Sleep_Demo.c: 31: for(j=153;j>0;j--);
	movlw	low(099h)
	movwf	(DelayXms@j)
	
l515:	
	decf	(DelayXms@j),f
	
l517:	
	movf	((DelayXms@j)),w
	btfss	status,2
	goto	u21
	goto	u20
u21:
	goto	l515
u20:
	line	28
	
l519:	
	decf	(DelayXms@i),f
	goto	l505
	line	33
	
l87:	
	return
	opt stack 0
GLOBAL	__end_of_DelayXms
	__end_of_DelayXms:
	signat	_DelayXms,4217
global	___latbits
___latbits	equ	2
	global	btemp
	btemp set 07Eh

	DABS	1,126,2	;btemp
	global	wtemp0
	wtemp0 set btemp+0
	end
